target datalayout = "e-m:e-p270:32:32-p271:32:32-p272:64:64-i64:64-i128:128-f80:128-n8:16:32:64-S128"
target triple = "x86_64-pc-linux-gnu"

; Function Attrs: nounwind uwtable
define internal void @exchange_bytes(ptr noundef %0, ptr noundef %1, i64 noundef %2) #0 {
  %4 = alloca ptr, align 8
  %5 = alloca ptr, align 8
  %6 = alloca i64, align 8
  %7 = alloca ptr, align 8
  %8 = alloca ptr, align 8
  %9 = alloca i8, align 1
  store ptr %0, ptr %4, align 8
  store ptr %1, ptr %5, align 8
  store i64 %2, ptr %6, align 8
  %10 = load ptr, ptr %4, align 8
  store ptr %10, ptr %7, align 8
  %11 = load ptr, ptr %5, align 8
  store ptr %11, ptr %8, align 8
  br label %12

12:                                               ; preds = %16, %3
  %13 = load i64, ptr %6, align 8
  %14 = add i64 %13, -1
  store i64 %14, ptr %6, align 8
  %15 = icmp ne i64 %13, 0
  br i1 %15, label %16, label %26

16:                                               ; preds = %12
  %17 = load ptr, ptr %7, align 8
  %18 = load i8, ptr %17, align 1
  store i8 %18, ptr %9, align 1
  %19 = load ptr, ptr %8, align 8
  %20 = load i8, ptr %19, align 1
  %21 = load ptr, ptr %7, align 8
  %22 = getelementptr i8, ptr %21, i32 1
  store ptr %22, ptr %7, align 8
  store i8 %20, ptr %21, align 1
  %23 = load i8, ptr %9, align 1
  %24 = load ptr, ptr %8, align 8
  %25 = getelementptr i8, ptr %24, i32 1
  store ptr %25, ptr %8, align 8
  store i8 %23, ptr %24, align 1
  br label %12, !llvm.loop !24

26:                                               ; preds = %12
  ret void
}