; Function Attrs: nofree norecurse nosync nounwind memory(readwrite, inaccessiblemem: none) uwtable
define internal void @exchange_bytes(ptr nocapture noundef %0, ptr nocapture noundef %1, i64 noundef %2) unnamed_addr #0 {
  %.not9 = icmp eq i64 %2, 0
  br i1 %.not9, label %._crit_edge, label %.lr.ph

.lr.ph:                                           ; preds = %3, %.lr.ph
  %.012 = phi i64 [ %4, %.lr.ph ], [ %2, %3 ]
  %.0711 = phi ptr [ %8, %.lr.ph ], [ %1, %3 ]
  %.0810 = phi ptr [ %7, %.lr.ph ], [ %0, %3 ]
  %4 = add i64 %.012, -1
  %5 = load i8, ptr %.0810, align 1
  %6 = load i8, ptr %.0711, align 1
  %7 = getelementptr i8, ptr %.0810, i64 1
  store i8 %6, ptr %.0810, align 1
  %8 = getelementptr i8, ptr %.0711, i64 1
  store i8 %5, ptr %.0711, align 1
  %.not = icmp eq i64 %4, 0
  br i1 %.not, label %._crit_edge, label %.lr.ph, !llvm.loop !24

._crit_edge:                                      ; preds = %.lr.ph, %3
  ret void
}